target datalayout = "e-m:e-p270:32:32-p271:32:32-p272:64:64-i64:64-i128:128-f80:128-n8:16:32:64-S128"
target triple = "x86_64-pc-linux-gnu"

%struct.AVFilterContext = type { ptr, ptr, ptr, ptr, ptr, i32, ptr, ptr, i32, ptr, ptr, i32, i32, ptr, ptr, ptr, ptr, i32, ptr, i32, i32 }
%struct.LagfunContext = type { ptr, float, i32, i32, i32, [4 x i32], [4 x i32], [4 x i32], [4 x ptr], [2 x ptr] }
%struct.ThreadData = type { ptr, ptr }
%struct.AVChannelLayout = type { i32, i32, %union.anon.1, ptr }
%union.anon.1 = type { i64 }
%struct.AVRational = type { i32, i32 }
%struct.AVFrame = type { [8 x ptr], [8 x i32], ptr, i32, i32, i32, i32, i32, %struct.AVRational, i64, i64, %struct.AVRational, i32, ptr, i32, i32, [8 x ptr], ptr, i32, ptr, i32, i32, i32, i32, i32, i32, i32, i64, ptr, i32, ptr, ptr, i64, i64, i64, i64, ptr, %struct.AVChannelLayout, i64 }

; Function Attrs: nounwind uwtable
define internal i32 @lagfun_frame16(ptr noundef %0, ptr noundef %1, i32 noundef %2, i32 noundef %3) #2 {
  %5 = alloca ptr, align 8
  %6 = alloca ptr, align 8
  %7 = alloca i32, align 4
  %8 = alloca i32, align 4
  %9 = alloca ptr, align 8
  %10 = alloca float, align 4
  %11 = alloca ptr, align 8
  %12 = alloca ptr, align 8
  %13 = alloca ptr, align 8
  %14 = alloca i32, align 4
  %15 = alloca i32, align 4
  %16 = alloca i32, align 4
  %17 = alloca i32, align 4
  %18 = alloca i32, align 4
  %19 = alloca ptr, align 8
  %20 = alloca ptr, align 8
  %21 = alloca ptr, align 8
  %22 = alloca i32, align 4
  %23 = alloca i32, align 4
  %24 = alloca float, align 4
  store ptr %0, ptr %5, align 8, !tbaa !4
  store ptr %1, ptr %6, align 8, !tbaa !49
  store i32 %2, ptr %7, align 4, !tbaa !24
  store i32 %3, ptr %8, align 4, !tbaa !24
  call void @llvm.lifetime.start.p0(i64 8, ptr %9) #7
  %25 = load ptr, ptr %5, align 8, !tbaa !4
  %26 = getelementptr inbounds nuw %struct.AVFilterContext, ptr %25, i32 0, i32 9
  %27 = load ptr, ptr %26, align 8, !tbaa !9
  store ptr %27, ptr %9, align 8, !tbaa !22
  call void @llvm.lifetime.start.p0(i64 4, ptr %10) #7
  %28 = load ptr, ptr %9, align 8, !tbaa !22
  %29 = getelementptr inbounds nuw %struct.LagfunContext, ptr %28, i32 0, i32 1
  %30 = load float, ptr %29, align 8, !tbaa !65
  store float %30, ptr %10, align 4, !tbaa !66
  call void @llvm.lifetime.start.p0(i64 8, ptr %11) #7
  %31 = load ptr, ptr %6, align 8, !tbaa !49
  store ptr %31, ptr %11, align 8, !tbaa !67
  call void @llvm.lifetime.start.p0(i64 8, ptr %12) #7
  %32 = load ptr, ptr %11, align 8, !tbaa !67
  %33 = getelementptr inbounds nuw %struct.ThreadData, ptr %32, i32 0, i32 0
  %34 = load ptr, ptr %33, align 8, !tbaa !47
  store ptr %34, ptr %12, align 8, !tbaa !32
  call void @llvm.lifetime.start.p0(i64 8, ptr %13) #7
  %35 = load ptr, ptr %11, align 8, !tbaa !67
  %36 = getelementptr inbounds nuw %struct.ThreadData, ptr %35, i32 0, i32 1
  %37 = load ptr, ptr %36, align 8, !tbaa !45
  store ptr %37, ptr %13, align 8, !tbaa !32
  call void @llvm.lifetime.start.p0(i64 4, ptr %14) #7
  store i32 0, ptr %14, align 4, !tbaa !24
  br label %38

38:                                               ; preds = %229, %4
  %39 = load i32, ptr %14, align 4, !tbaa !24
  %40 = load ptr, ptr %9, align 8, !tbaa !22
  %41 = getelementptr inbounds nuw %struct.LagfunContext, ptr %40, i32 0, i32 4
  %42 = load i32, ptr %41, align 4, !tbaa !25
  %43 = icmp slt i32 %39, %42
  br i1 %43, label %45, label %44

44:                                               ; preds = %38
  store i32 2, ptr %15, align 4
  call void @llvm.lifetime.end.p0(i64 4, ptr %14) #7
  br label %232

45:                                               ; preds = %38
  call void @llvm.lifetime.start.p0(i64 4, ptr %16) #7
  %46 = load ptr, ptr %9, align 8, !tbaa !22
  %47 = getelementptr inbounds nuw %struct.LagfunContext, ptr %46, i32 0, i32 7
  %48 = load i32, ptr %14, align 4, !tbaa !24
  %49 = sext i32 %48 to i64
  %50 = getelementptr inbounds [4 x i32], ptr %47, i64 0, i64 %49
  %51 = load i32, ptr %50, align 4, !tbaa !24
  %52 = load i32, ptr %7, align 4, !tbaa !24
  %53 = mul nsw i32 %51, %52
  %54 = load i32, ptr %8, align 4, !tbaa !24
  %55 = sdiv i32 %53, %54
  store i32 %55, ptr %16, align 4, !tbaa !24
  call void @llvm.lifetime.start.p0(i64 4, ptr %17) #7
  %56 = load ptr, ptr %9, align 8, !tbaa !22
  %57 = getelementptr inbounds nuw %struct.LagfunContext, ptr %56, i32 0, i32 7
  %58 = load i32, ptr %14, align 4, !tbaa !24
  %59 = sext i32 %58 to i64
  %60 = getelementptr inbounds [4 x i32], ptr %57, i64 0, i64 %59
  %61 = load i32, ptr %60, align 4, !tbaa !24
  %62 = load i32, ptr %7, align 4, !tbaa !24
  %63 = add nsw i32 %62, 1
  %64 = mul nsw i32 %61, %63
  %65 = load i32, ptr %8, align 4, !tbaa !24
  %66 = sdiv i32 %64, %65
  store i32 %66, ptr %17, align 4, !tbaa !24
  call void @llvm.lifetime.start.p0(i64 4, ptr %18) #7
  %67 = load ptr, ptr %9, align 8, !tbaa !22
  %68 = getelementptr inbounds nuw %struct.LagfunContext, ptr %67, i32 0, i32 6
  %69 = load i32, ptr %14, align 4, !tbaa !24
  %70 = sext i32 %69 to i64
  %71 = getelementptr inbounds [4 x i32], ptr %68, i64 0, i64 %70
  %72 = load i32, ptr %71, align 4, !tbaa !24
  store i32 %72, ptr %18, align 4, !tbaa !24
  call void @llvm.lifetime.start.p0(i64 8, ptr %19) #7
  %73 = load ptr, ptr %12, align 8, !tbaa !32
  %74 = getelementptr inbounds nuw %struct.AVFrame, ptr %73, i32 0, i32 0
  %75 = load i32, ptr %14, align 4, !tbaa !24
  %76 = sext i32 %75 to i64
  %77 = getelementptr inbounds [8 x ptr], ptr %74, i64 0, i64 %76
  %78 = load ptr, ptr %77, align 8, !tbaa !69
  %79 = load i32, ptr %16, align 4, !tbaa !24
  %80 = load ptr, ptr %12, align 8, !tbaa !32
  %81 = getelementptr inbounds nuw %struct.AVFrame, ptr %80, i32 0, i32 1
  %82 = load i32, ptr %14, align 4, !tbaa !24
  %83 = sext i32 %82 to i64
  %84 = getelementptr inbounds [8 x i32], ptr %81, i64 0, i64 %83
  %85 = load i32, ptr %84, align 4, !tbaa !24
  %86 = mul nsw i32 %79, %85
  %87 = sext i32 %86 to i64
  %88 = udiv i64 %87, 2
  %89 = getelementptr inbounds nuw i16, ptr %78, i64 %88
  store ptr %89, ptr %19, align 8, !tbaa !75
  call void @llvm.lifetime.start.p0(i64 8, ptr %20) #7
  %90 = load ptr, ptr %9, align 8, !tbaa !22
  %91 = getelementptr inbounds nuw %struct.LagfunContext, ptr %90, i32 0, i32 8
  %92 = load i32, ptr %14, align 4, !tbaa !24
  %93 = sext i32 %92 to i64
  %94 = getelementptr inbounds [4 x ptr], ptr %91, i64 0, i64 %93
  %95 = load ptr, ptr %94, align 8, !tbaa !62
  %96 = load i32, ptr %16, align 4, !tbaa !24
  %97 = load ptr, ptr %9, align 8, !tbaa !22
  %98 = getelementptr inbounds nuw %struct.LagfunContext, ptr %97, i32 0, i32 6
  %99 = load i32, ptr %14, align 4, !tbaa !24
  %100 = sext i32 %99 to i64
  %101 = getelementptr inbounds [4 x i32], ptr %98, i64 0, i64 %100
  %102 = load i32, ptr %101, align 4, !tbaa !24
  %103 = mul nsw i32 %96, %102
  %104 = sext i32 %103 to i64
  %105 = getelementptr inbounds float, ptr %95, i64 %104
  store ptr %105, ptr %20, align 8, !tbaa !62
  call void @llvm.lifetime.start.p0(i64 8, ptr %21) #7
  %106 = load ptr, ptr %13, align 8, !tbaa !32
  %107 = getelementptr inbounds nuw %struct.AVFrame, ptr %106, i32 0, i32 0
  %108 = load i32, ptr %14, align 4, !tbaa !24
  %109 = sext i32 %108 to i64
  %110 = getelementptr inbounds [8 x ptr], ptr %107, i64 0, i64 %109
  %111 = load ptr, ptr %110, align 8, !tbaa !69
  %112 = load i32, ptr %16, align 4, !tbaa !24
  %113 = load ptr, ptr %13, align 8, !tbaa !32
  %114 = getelementptr inbounds nuw %struct.AVFrame, ptr %113, i32 0, i32 1
  %115 = load i32, ptr %14, align 4, !tbaa !24
  %116 = sext i32 %115 to i64
  %117 = getelementptr inbounds [8 x i32], ptr %114, i64 0, i64 %116
  %118 = load i32, ptr %117, align 4, !tbaa !24
  %119 = mul nsw i32 %112, %118
  %120 = sext i32 %119 to i64
  %121 = udiv i64 %120, 2
  %122 = getelementptr inbounds nuw i16, ptr %111, i64 %121
  store ptr %122, ptr %21, align 8, !tbaa !75
  %123 = load i32, ptr %14, align 4, !tbaa !24
  %124 = shl i32 1, %123
  %125 = load ptr, ptr %9, align 8, !tbaa !22
  %126 = getelementptr inbounds nuw %struct.LagfunContext, ptr %125, i32 0, i32 2
  %127 = load i32, ptr %126, align 4, !tbaa !70
  %128 = and i32 %124, %127
  %129 = icmp ne i32 %128, 0
  br i1 %129, label %154, label %130

130:                                              ; preds = %45
  %131 = load ptr, ptr %21, align 8, !tbaa !75
  %132 = load ptr, ptr %13, align 8, !tbaa !32
  %133 = getelementptr inbounds nuw %struct.AVFrame, ptr %132, i32 0, i32 1
  %134 = load i32, ptr %14, align 4, !tbaa !24
  %135 = sext i32 %134 to i64
  %136 = getelementptr inbounds [8 x i32], ptr %133, i64 0, i64 %135
  %137 = load i32, ptr %136, align 4, !tbaa !24
  %138 = load ptr, ptr %19, align 8, !tbaa !75
  %139 = load ptr, ptr %12, align 8, !tbaa !32
  %140 = getelementptr inbounds nuw %struct.AVFrame, ptr %139, i32 0, i32 1
  %141 = load i32, ptr %14, align 4, !tbaa !24
  %142 = sext i32 %141 to i64
  %143 = getelementptr inbounds [8 x i32], ptr %140, i64 0, i64 %142
  %144 = load i32, ptr %143, align 4, !tbaa !24
  %145 = load ptr, ptr %9, align 8, !tbaa !22
  %146 = getelementptr inbounds nuw %struct.LagfunContext, ptr %145, i32 0, i32 5
  %147 = load i32, ptr %14, align 4, !tbaa !24
  %148 = sext i32 %147 to i64
  %149 = getelementptr inbounds [4 x i32], ptr %146, i64 0, i64 %148
  %150 = load i32, ptr %149, align 4, !tbaa !24
  %151 = load i32, ptr %17, align 4, !tbaa !24
  %152 = load i32, ptr %16, align 4, !tbaa !24
  %153 = sub nsw i32 %151, %152
  call void @av_image_copy_plane(ptr noundef %131, i32 noundef %137, ptr noundef %138, i32 noundef %144, i32 noundef %150, i32 noundef %153)
  store i32 4, ptr %15, align 4
  br label %226

154:                                              ; preds = %45
  call void @llvm.lifetime.start.p0(i64 4, ptr %22) #7
  %155 = load i32, ptr %16, align 4, !tbaa !24
  store i32 %155, ptr %22, align 4, !tbaa !24
  br label %156

156:                                              ; preds = %222, %154
  %157 = load i32, ptr %22, align 4, !tbaa !24
  %158 = load i32, ptr %17, align 4, !tbaa !24
  %159 = icmp slt i32 %157, %158
  br i1 %159, label %161, label %160

160:                                              ; preds = %156
  store i32 5, ptr %15, align 4
  call void @llvm.lifetime.end.p0(i64 4, ptr %22) #7
  br label %225

161:                                              ; preds = %156
  call void @llvm.lifetime.start.p0(i64 4, ptr %23) #7
  store i32 0, ptr %23, align 4, !tbaa !24
  br label %162

162:                                              ; preds = %194, %161
  %163 = load i32, ptr %23, align 4, !tbaa !24
  %164 = load i32, ptr %18, align 4, !tbaa !24
  %165 = icmp slt i32 %163, %164
  br i1 %165, label %167, label %166

166:                                              ; preds = %162
  store i32 8, ptr %15, align 4
  call void @llvm.lifetime.end.p0(i64 4, ptr %23) #7
  br label %197

167:                                              ; preds = %162
  call void @llvm.lifetime.start.p0(i64 4, ptr %24) #7
  %168 = load ptr, ptr %19, align 8, !tbaa !75
  %169 = load i32, ptr %23, align 4, !tbaa !24
  %170 = sext i32 %169 to i64
  %171 = getelementptr inbounds i16, ptr %168, i64 %170
  %172 = load i16, ptr %171, align 2, !tbaa !77
  %173 = uitofp i16 %172 to float
  %174 = load ptr, ptr %20, align 8, !tbaa !62
  %175 = load i32, ptr %23, align 4, !tbaa !24
  %176 = sext i32 %175 to i64
  %177 = getelementptr inbounds float, ptr %174, i64 %176
  %178 = load float, ptr %177, align 4, !tbaa !66
  %179 = load float, ptr %10, align 4, !tbaa !66
  %180 = fmul nsz float %178, %179
  %181 = call nsz float @llvm.maxnum.f32(float %173, float %180)
  store float %181, ptr %24, align 4, !tbaa !66
  %182 = load float, ptr %24, align 4, !tbaa !66
  %183 = load ptr, ptr %20, align 8, !tbaa !62
  %184 = load i32, ptr %23, align 4, !tbaa !24
  %185 = sext i32 %184 to i64
  %186 = getelementptr inbounds float, ptr %183, i64 %185
  store float %182, ptr %186, align 4, !tbaa !66
  %187 = load float, ptr %24, align 4, !tbaa !66
  %188 = call i64 @llvm.lrint.i64.f32(float %187)
  %189 = trunc i64 %188 to i16
  %190 = load ptr, ptr %21, align 8, !tbaa !75
  %191 = load i32, ptr %23, align 4, !tbaa !24
  %192 = sext i32 %191 to i64
  %193 = getelementptr inbounds i16, ptr %190, i64 %192
  store i16 %189, ptr %193, align 2, !tbaa !77
  call void @llvm.lifetime.end.p0(i64 4, ptr %24) #7
  br label %194

194:                                              ; preds = %167
  %195 = load i32, ptr %23, align 4, !tbaa !24
  %196 = add nsw i32 %195, 1
  store i32 %196, ptr %23, align 4, !tbaa !24
  br label %162, !llvm.loop !79

197:                                              ; preds = %166
  %198 = load ptr, ptr %12, align 8, !tbaa !32
  %199 = getelementptr inbounds nuw %struct.AVFrame, ptr %198, i32 0, i32 1
  %200 = load i32, ptr %14, align 4, !tbaa !24
  %201 = sext i32 %200 to i64
  %202 = getelementptr inbounds [8 x i32], ptr %199, i64 0, i64 %201
  %203 = load i32, ptr %202, align 4, !tbaa !24
  %204 = sext i32 %203 to i64
  %205 = udiv i64 %204, 2
  %206 = load ptr, ptr %19, align 8, !tbaa !75
  %207 = getelementptr inbounds nuw i16, ptr %206, i64 %205
  store ptr %207, ptr %19, align 8, !tbaa !75
  %208 = load i32, ptr %18, align 4, !tbaa !24
  %209 = load ptr, ptr %20, align 8, !tbaa !62
  %210 = sext i32 %208 to i64
  %211 = getelementptr inbounds float, ptr %209, i64 %210
  store ptr %211, ptr %20, align 8, !tbaa !62
  %212 = load ptr, ptr %13, align 8, !tbaa !32
  %213 = getelementptr inbounds nuw %struct.AVFrame, ptr %212, i32 0, i32 1
  %214 = load i32, ptr %14, align 4, !tbaa !24
  %215 = sext i32 %214 to i64
  %216 = getelementptr inbounds [8 x i32], ptr %213, i64 0, i64 %215
  %217 = load i32, ptr %216, align 4, !tbaa !24
  %218 = sext i32 %217 to i64
  %219 = udiv i64 %218, 2
  %220 = load ptr, ptr %21, align 8, !tbaa !75
  %221 = getelementptr inbounds nuw i16, ptr %220, i64 %219
  store ptr %221, ptr %21, align 8, !tbaa !75
  br label %222

222:                                              ; preds = %197
  %223 = load i32, ptr %22, align 4, !tbaa !24
  %224 = add nsw i32 %223, 1
  store i32 %224, ptr %22, align 4, !tbaa !24
  br label %156, !llvm.loop !80

225:                                              ; preds = %160
  store i32 0, ptr %15, align 4
  br label %226

226:                                              ; preds = %225, %130
  call void @llvm.lifetime.end.p0(i64 8, ptr %21) #7
  call void @llvm.lifetime.end.p0(i64 8, ptr %20) #7
  call void @llvm.lifetime.end.p0(i64 8, ptr %19) #7
  call void @llvm.lifetime.end.p0(i64 4, ptr %18) #7
  call void @llvm.lifetime.end.p0(i64 4, ptr %17) #7
  call void @llvm.lifetime.end.p0(i64 4, ptr %16) #7
  %227 = load i32, ptr %15, align 4
  switch i32 %227, label %233 [
    i32 0, label %228
    i32 4, label %229
  ]

228:                                              ; preds = %226
  br label %229

229:                                              ; preds = %228, %226
  %230 = load i32, ptr %14, align 4, !tbaa !24
  %231 = add nsw i32 %230, 1
  store i32 %231, ptr %14, align 4, !tbaa !24
  br label %38, !llvm.loop !81

232:                                              ; preds = %44
  store i32 1, ptr %15, align 4
  call void @llvm.lifetime.end.p0(i64 8, ptr %13) #7
  call void @llvm.lifetime.end.p0(i64 8, ptr %12) #7
  call void @llvm.lifetime.end.p0(i64 8, ptr %11) #7
  call void @llvm.lifetime.end.p0(i64 4, ptr %10) #7
  call void @llvm.lifetime.end.p0(i64 8, ptr %9) #7
  ret i32 0

233:                                              ; preds = %226
  unreachable
}